target datalayout = "e-m:e-p270:32:32-p271:32:32-p272:64:64-i64:64-i128:128-f80:128-n8:16:32:64-S128"
target triple = "x86_64-pc-linux-gnu"

%"class.gmx::StopConditionTime" = type <{ i8, [3 x i8], float, i32, i32, i8, [3 x i8] }>

; Function Attrs: mustprogress nounwind uwtable
define void @_ZN3gmx17StopConditionTimeC2Eifi(ptr noundef nonnull align 4 dereferenceable(20) %0, i32 noundef %1, float noundef %2, i32 noundef %3) unnamed_addr #1 align 2 {
  %5 = alloca ptr, align 8
  %6 = alloca i32, align 4
  %7 = alloca float, align 4
  %8 = alloca i32, align 4
  store ptr %0, ptr %5, align 8
  store i32 %1, ptr %6, align 4
  store float %2, ptr %7, align 4
  store i32 %3, ptr %8, align 4
  %9 = load ptr, ptr %5, align 8
  %10 = getelementptr inbounds %"class.gmx::StopConditionTime", ptr %9, i32 0, i32 0
  store i8 0, ptr %10, align 4
  %11 = getelementptr inbounds %"class.gmx::StopConditionTime", ptr %9, i32 0, i32 2
  %12 = load float, ptr %7, align 4
  store float %12, ptr %11, align 4
  %13 = getelementptr inbounds %"class.gmx::StopConditionTime", ptr %9, i32 0, i32 3
  %14 = load i32, ptr %6, align 4
  store i32 %14, ptr %13, align 4
  %15 = getelementptr inbounds %"class.gmx::StopConditionTime", ptr %9, i32 0, i32 4
  %16 = load i32, ptr %8, align 4
  store i32 %16, ptr %15, align 4
  %17 = getelementptr inbounds %"class.gmx::StopConditionTime", ptr %9, i32 0, i32 5
  %18 = load i32, ptr %6, align 4
  %19 = icmp sle i32 %18, 0
  %20 = zext i1 %19 to i8
  store i8 %20, ptr %17, align 4
  ret void
}