; Function Attrs: mustprogress nofree norecurse nosync nounwind willreturn memory(argmem: write) uwtable
define void @_ZN3gmx17StopConditionTimeC2Eifi(ptr nocapture noundef nonnull writeonly align 4 dereferenceable(20) %0, i32 noundef %1, float noundef %2, i32 noundef %3) unnamed_addr #1 align 2 {
  store i8 0, ptr %0, align 4
  %5 = getelementptr inbounds i8, ptr %0, i64 4
  store float %2, ptr %5, align 4
  %6 = getelementptr inbounds i8, ptr %0, i64 8
  store i32 %1, ptr %6, align 4
  %7 = getelementptr inbounds i8, ptr %0, i64 12
  store i32 %3, ptr %7, align 4
  %8 = getelementptr inbounds i8, ptr %0, i64 16
  %9 = icmp slt i32 %1, 1
  %10 = zext i1 %9 to i8
  store i8 %10, ptr %8, align 4
  ret void
}